target datalayout = "e-m:e-p270:32:32-p271:32:32-p272:64:64-i64:64-i128:128-f80:128-n8:16:32:64-S128"
target triple = "x86_64-pc-linux-gnu"

%struct.gmx_sel_lexer_t = type { ptr, %"class.std::__exception_ptr::exception_ptr", i8, ptr, i32, ptr, %"class.std::__cxx11::basic_string", %"struct.gmx::SelectionLocation", ptr, i32, i32, i32, ptr, i8, ptr, i32, i8, i8, i8, i8, ptr }
%"class.std::__exception_ptr::exception_ptr" = type { ptr }
%"class.std::__cxx11::basic_string" = type { %"struct.std::__cxx11::basic_string<char>::_Alloc_hider", i64, %union.anon }
%"struct.std::__cxx11::basic_string<char>::_Alloc_hider" = type { ptr }
%union.anon = type { i64, [8 x i8] }
%"struct.gmx::SelectionLocation" = type { i32, i32 }

; Function Attrs: mustprogress uwtable
define void @_Z24_gmx_sel_lexer_add_tokenPN3gmx17SelectionLocationEPKciP15gmx_sel_lexer_t(ptr noundef %0, ptr noundef %1, i32 noundef %2, ptr noundef %3) #0 {
  %5 = alloca ptr, align 8
  %6 = alloca ptr, align 8
  %7 = alloca i32, align 4
  %8 = alloca ptr, align 8
  store ptr %0, ptr %5, align 8
  store ptr %1, ptr %6, align 8
  store i32 %2, ptr %7, align 4
  store ptr %3, ptr %8, align 8
  %9 = load ptr, ptr %8, align 8
  %10 = getelementptr inbounds %struct.gmx_sel_lexer_t, ptr %9, i32 0, i32 6
  %11 = call noundef i64 @_ZNKSt7__cxx1112basic_stringIcSt11char_traitsIcESaIcEE4sizeEv(ptr noundef nonnull align 8 dereferenceable(32) %10) #10
  %12 = trunc i64 %11 to i32
  %13 = load ptr, ptr %5, align 8
  %14 = getelementptr inbounds %"struct.gmx::SelectionLocation", ptr %13, i32 0, i32 1
  store i32 %12, ptr %14, align 4
  %15 = load ptr, ptr %5, align 8
  %16 = getelementptr inbounds %"struct.gmx::SelectionLocation", ptr %15, i32 0, i32 0
  store i32 %12, ptr %16, align 4
  %17 = load ptr, ptr %6, align 8
  %18 = icmp ne ptr %17, null
  br i1 %18, label %19, label %49

19:                                               ; preds = %4
  %20 = load i32, ptr %7, align 4
  %21 = icmp eq i32 %20, 0
  br i1 %21, label %49, label %22

22:                                               ; preds = %19
  %23 = load ptr, ptr %6, align 8
  %24 = call i64 @strlen(ptr noundef %23) #11
  %25 = icmp eq i64 %24, 0
  br i1 %25, label %49, label %26

26:                                               ; preds = %22
  %27 = load ptr, ptr %6, align 8
  %28 = getelementptr inbounds i8, ptr %27, i64 0
  %29 = load i8, ptr %28, align 1
  %30 = sext i8 %29 to i32
  %31 = icmp eq i32 %30, 32
  br i1 %31, label %32, label %50

32:                                               ; preds = %26
  %33 = load ptr, ptr %6, align 8
  %34 = getelementptr inbounds i8, ptr %33, i64 1
  %35 = load i8, ptr %34, align 1
  %36 = sext i8 %35 to i32
  %37 = icmp eq i32 %36, 0
  br i1 %37, label %38, label %50

38:                                               ; preds = %32
  %39 = load ptr, ptr %8, align 8
  %40 = getelementptr inbounds %struct.gmx_sel_lexer_t, ptr %39, i32 0, i32 6
  %41 = call noundef zeroext i1 @_ZNKSt7__cxx1112basic_stringIcSt11char_traitsIcESaIcEE5emptyEv(ptr noundef nonnull align 8 dereferenceable(32) %40) #10
  br i1 %41, label %49, label %42

42:                                               ; preds = %38
  %43 = load ptr, ptr %8, align 8
  %44 = getelementptr inbounds %struct.gmx_sel_lexer_t, ptr %43, i32 0, i32 6
  %45 = call noundef nonnull align 1 dereferenceable(1) ptr @_ZNSt7__cxx1112basic_stringIcSt11char_traitsIcESaIcEE4backEv(ptr noundef nonnull align 8 dereferenceable(32) %44) #10
  %46 = load i8, ptr %45, align 1
  %47 = sext i8 %46 to i32
  %48 = icmp eq i32 %47, 32
  br i1 %48, label %49, label %50

49:                                               ; preds = %42, %38, %22, %19, %4
  br label %70

50:                                               ; preds = %42, %32, %26
  %51 = load i32, ptr %7, align 4
  %52 = icmp slt i32 %51, 0
  br i1 %52, label %53, label %57

53:                                               ; preds = %50
  %54 = load ptr, ptr %6, align 8
  %55 = call i64 @strlen(ptr noundef %54) #11
  %56 = trunc i64 %55 to i32
  store i32 %56, ptr %7, align 4
  br label %57

57:                                               ; preds = %53, %50
  %58 = load ptr, ptr %8, align 8
  %59 = getelementptr inbounds %struct.gmx_sel_lexer_t, ptr %58, i32 0, i32 6
  %60 = load ptr, ptr %6, align 8
  %61 = load i32, ptr %7, align 4
  %62 = sext i32 %61 to i64
  %63 = call noundef nonnull align 8 dereferenceable(32) ptr @_ZNSt7__cxx1112basic_stringIcSt11char_traitsIcESaIcEE6appendEPKcm(ptr noundef nonnull align 8 dereferenceable(32) %59, ptr noundef %60, i64 noundef %62)
  %64 = load ptr, ptr %8, align 8
  %65 = getelementptr inbounds %struct.gmx_sel_lexer_t, ptr %64, i32 0, i32 6
  %66 = call noundef i64 @_ZNKSt7__cxx1112basic_stringIcSt11char_traitsIcESaIcEE4sizeEv(ptr noundef nonnull align 8 dereferenceable(32) %65) #10
  %67 = trunc i64 %66 to i32
  %68 = load ptr, ptr %5, align 8
  %69 = getelementptr inbounds %"struct.gmx::SelectionLocation", ptr %68, i32 0, i32 1
  store i32 %67, ptr %69, align 4
  br label %70

70:                                               ; preds = %57, %49
  ret void
}