; Function Attrs: mustprogress uwtable
define void @_Z24_gmx_sel_lexer_add_tokenPN3gmx17SelectionLocationEPKciP15gmx_sel_lexer_t(ptr nocapture noundef writeonly %0, ptr noundef %1, i32 noundef %2, ptr noundef %3) local_unnamed_addr #0 {
  %5 = getelementptr inbounds i8, ptr %3, i64 48
  %6 = tail call noundef i64 @_ZNKSt7__cxx1112basic_stringIcSt11char_traitsIcESaIcEE4sizeEv(ptr noundef nonnull align 8 dereferenceable(32) %5) #13
  %7 = trunc i64 %6 to i32
  %8 = getelementptr inbounds i8, ptr %0, i64 4
  store i32 %7, ptr %8, align 4
  store i32 %7, ptr %0, align 4
  %9 = icmp eq ptr %1, null
  %10 = icmp eq i32 %2, 0
  %or.cond = or i1 %9, %10
  br i1 %or.cond, label %32, label %11

11:                                               ; preds = %4
  %char0 = load i8, ptr %1, align 1
  switch i8 %char0, label %22 [
    i8 0, label %32
    i8 32, label %12
  ]

12:                                               ; preds = %11
  %13 = getelementptr inbounds i8, ptr %1, i64 1
  %14 = load i8, ptr %13, align 1
  %15 = icmp eq i8 %14, 0
  br i1 %15, label %16, label %22

16:                                               ; preds = %12
  %17 = tail call noundef zeroext i1 @_ZNKSt7__cxx1112basic_stringIcSt11char_traitsIcESaIcEE5emptyEv(ptr noundef nonnull align 8 dereferenceable(32) %5) #13
  br i1 %17, label %32, label %18

18:                                               ; preds = %16
  %19 = tail call noundef nonnull align 1 dereferenceable(1) ptr @_ZNSt7__cxx1112basic_stringIcSt11char_traitsIcESaIcEE4backEv(ptr noundef nonnull align 8 dereferenceable(32) %5) #13
  %20 = load i8, ptr %19, align 1
  %21 = icmp eq i8 %20, 32
  br i1 %21, label %32, label %22

22:                                               ; preds = %11, %18, %12
  %23 = icmp slt i32 %2, 0
  br i1 %23, label %24, label %27

24:                                               ; preds = %22
  %25 = tail call i64 @strlen(ptr noundef nonnull dereferenceable(1) %1) #15
  %26 = trunc i64 %25 to i32
  br label %27

27:                                               ; preds = %24, %22
  %.0 = phi i32 [ %26, %24 ], [ %2, %22 ]
  %28 = sext i32 %.0 to i64
  %29 = tail call noundef nonnull align 8 dereferenceable(32) ptr @_ZNSt7__cxx1112basic_stringIcSt11char_traitsIcESaIcEE6appendEPKcm(ptr noundef nonnull align 8 dereferenceable(32) %5, ptr noundef nonnull %1, i64 noundef %28)
  %30 = tail call noundef i64 @_ZNKSt7__cxx1112basic_stringIcSt11char_traitsIcESaIcEE4sizeEv(ptr noundef nonnull align 8 dereferenceable(32) %5) #13
  %31 = trunc i64 %30 to i32
  store i32 %31, ptr %8, align 4
  br label %32

32:                                               ; preds = %11, %4, %16, %18, %27
  ret void
}